target datalayout = "e-m:e-p270:32:32-p271:32:32-p272:64:64-i64:64-i128:128-f80:128-n8:16:32:64-S128"
target triple = "x86_64-pc-linux-gnu"

%struct.slurm_msg = type { %struct.sockaddr_storage, ptr, i32, i32, i32, i8, i32, i8, i32, ptr, ptr, i32, ptr, ptr, i16, i8, i16, i16, %struct.forward, ptr, %struct.sockaddr_storage, ptr }
%struct.forward = type { %struct.slurm_node_alias_addrs_t, i16, i16, ptr, i32, i16, i16 }
%struct.slurm_node_alias_addrs_t = type { i64, ptr, ptr, i32, ptr }
%struct.sockaddr_storage = type { i16, [118 x i8], i64 }
%struct.agent_arg_t = type { i32, i16, i32, i8, ptr, ptr, i16, i32, ptr, i16 }

@.str.29 = private unnamed_addr constant [34 x i8] c"failed to send message type %d/%s\00", align 1
@.str.30 = private unnamed_addr constant [22 x i8] c"%s: no ret_list given\00", align 1
@__func__._rpc_thread = private unnamed_addr constant [12 x i8] c"_rpc_thread\00", align 1

; Function Attrs: nounwind uwtable
define internal ptr @_rpc_thread(ptr noundef %0) #0 {
  %2 = alloca ptr, align 8
  %3 = alloca ptr, align 8
  %4 = alloca %struct.slurm_msg, align 8
  %5 = alloca ptr, align 8
  store ptr %0, ptr %2, align 8
  call void @llvm.lifetime.start.p0(i64 8, ptr %3) #9
  %6 = load ptr, ptr %2, align 8
  store ptr %6, ptr %3, align 8
  call void @llvm.lifetime.start.p0(i64 424, ptr %4) #9
  call void @slurm_msg_t_init(ptr noundef %4)
  %7 = load ptr, ptr %3, align 8
  %8 = getelementptr inbounds nuw %struct.agent_arg_t, ptr %7, i32 0, i32 8
  %9 = load ptr, ptr %8, align 8
  %10 = getelementptr inbounds nuw %struct.slurm_msg, ptr %4, i32 0, i32 13
  store ptr %9, ptr %10, align 8
  %11 = load ptr, ptr %3, align 8
  %12 = getelementptr inbounds nuw %struct.agent_arg_t, ptr %11, i32 0, i32 9
  %13 = load i16, ptr %12, align 8
  %14 = getelementptr inbounds nuw %struct.slurm_msg, ptr %4, i32 0, i32 14
  store i16 %13, ptr %14, align 8
  %15 = load ptr, ptr %3, align 8
  %16 = getelementptr inbounds nuw %struct.agent_arg_t, ptr %15, i32 0, i32 7
  %17 = load i32, ptr %16, align 4
  %18 = trunc i32 %17 to i16
  %19 = getelementptr inbounds nuw %struct.slurm_msg, ptr %4, i32 0, i32 16
  store i16 %18, ptr %19, align 4
  %20 = load ptr, ptr %3, align 8
  %21 = getelementptr inbounds nuw %struct.agent_arg_t, ptr %20, i32 0, i32 6
  %22 = load i16, ptr %21, align 8
  %23 = getelementptr inbounds nuw %struct.slurm_msg, ptr %4, i32 0, i32 17
  store i16 %22, ptr %23, align 2
  %24 = load ptr, ptr %3, align 8
  %25 = getelementptr inbounds nuw %struct.agent_arg_t, ptr %24, i32 0, i32 2
  %26 = load i32, ptr %25, align 8
  call void @slurm_msg_set_r_uid(ptr noundef %4, i32 noundef %26)
  %27 = load ptr, ptr %3, align 8
  %28 = getelementptr inbounds nuw %struct.agent_arg_t, ptr %27, i32 0, i32 4
  %29 = load ptr, ptr %28, align 8
  %30 = icmp ne ptr %29, null
  br i1 %30, label %31, label %47

31:                                               ; preds = %1
  %32 = getelementptr inbounds nuw %struct.slurm_msg, ptr %4, i32 0, i32 0
  %33 = load ptr, ptr %3, align 8
  %34 = getelementptr inbounds nuw %struct.agent_arg_t, ptr %33, i32 0, i32 4
  %35 = load ptr, ptr %34, align 8
  call void @llvm.memcpy.p0.p0.i64(ptr align 8 %32, ptr align 8 %35, i64 128, i1 false)
  %36 = call i32 @slurm_send_only_node_msg(ptr noundef %4)
  %37 = icmp ne i32 %36, 0
  br i1 %37, label %38, label %46

38:                                               ; preds = %31
  %39 = getelementptr inbounds nuw %struct.slurm_msg, ptr %4, i32 0, i32 16
  %40 = load i16, ptr %39, align 4
  %41 = zext i16 %40 to i32
  %42 = getelementptr inbounds nuw %struct.slurm_msg, ptr %4, i32 0, i32 16
  %43 = load i16, ptr %42, align 4
  %44 = call ptr @rpc_num2string(i16 noundef zeroext %43)
  %45 = call i32 (ptr, ...) @error(ptr noundef @.str.29, i32 noundef %41, ptr noundef %44)
  br label %46

46:                                               ; preds = %38, %31
  br label %67

47:                                               ; preds = %1
  call void @llvm.lifetime.start.p0(i64 8, ptr %5) #9
  store ptr null, ptr %5, align 8
  %48 = load ptr, ptr %3, align 8
  %49 = getelementptr inbounds nuw %struct.agent_arg_t, ptr %48, i32 0, i32 5
  %50 = load ptr, ptr %49, align 8
  %51 = call ptr @start_msg_tree(ptr noundef %50, ptr noundef %4, i32 noundef 0)
  store ptr %51, ptr %5, align 8
  %52 = icmp ne ptr %51, null
  br i1 %52, label %55, label %53

53:                                               ; preds = %47
  %54 = call i32 (ptr, ...) @error(ptr noundef @.str.30, ptr noundef @__func__._rpc_thread)
  br label %66

55:                                               ; preds = %47
  %56 = load ptr, ptr %5, align 8
  %57 = call i32 @list_for_each(ptr noundef %56, ptr noundef @_foreach_ret_data_info, ptr noundef null)
  br label %58

58:                                               ; preds = %55
  %59 = load ptr, ptr %5, align 8
  %60 = icmp ne ptr %59, null
  br i1 %60, label %61, label %63

61:                                               ; preds = %58
  %62 = load ptr, ptr %5, align 8
  call void @list_destroy(ptr noundef %62)
  br label %63

63:                                               ; preds = %61, %58
  store ptr null, ptr %5, align 8
  br label %64

64:                                               ; preds = %63
  br label %65

65:                                               ; preds = %64
  br label %66

66:                                               ; preds = %65, %53
  call void @llvm.lifetime.end.p0(i64 8, ptr %5) #9
  br label %67

67:                                               ; preds = %66, %46
  %68 = load ptr, ptr %3, align 8
  call void @purge_agent_args(ptr noundef %68)
  call void @llvm.lifetime.end.p0(i64 424, ptr %4) #9
  call void @llvm.lifetime.end.p0(i64 8, ptr %3) #9
  ret ptr null
}