; Function Attrs: nounwind uwtable
define internal noalias noundef ptr @_rpc_thread(ptr noundef %0) #1 {
  %2 = alloca %struct.slurm_msg, align 8
  call void @llvm.lifetime.start.p0(i64 424, ptr nonnull %2) #15
  call void @slurm_msg_t_init(ptr noundef nonnull %2) #15
  %3 = getelementptr inbounds nuw i8, ptr %0, i64 40
  %4 = load ptr, ptr %3, align 8
  %5 = getelementptr inbounds nuw i8, ptr %2, i64 200
  store ptr %4, ptr %5, align 8
  %6 = getelementptr inbounds nuw i8, ptr %0, i64 48
  %7 = load i16, ptr %6, align 8
  %8 = getelementptr inbounds nuw i8, ptr %2, i64 208
  store i16 %7, ptr %8, align 8
  %9 = getelementptr inbounds nuw i8, ptr %0, i64 36
  %10 = load i32, ptr %9, align 4
  %11 = trunc i32 %10 to i16
  %12 = getelementptr inbounds nuw i8, ptr %2, i64 212
  store i16 %11, ptr %12, align 4
  %13 = getelementptr inbounds nuw i8, ptr %0, i64 32
  %14 = load i16, ptr %13, align 8
  %15 = getelementptr inbounds nuw i8, ptr %2, i64 214
  store i16 %14, ptr %15, align 2
  %16 = getelementptr inbounds nuw i8, ptr %0, i64 8
  %17 = load i32, ptr %16, align 8
  call void @slurm_msg_set_r_uid(ptr noundef nonnull %2, i32 noundef %17) #15
  %18 = getelementptr inbounds nuw i8, ptr %0, i64 16
  %19 = load ptr, ptr %18, align 8
  %.not = icmp eq ptr %19, null
  br i1 %.not, label %27, label %20

20:                                               ; preds = %1
  call void @llvm.memcpy.p0.p0.i64(ptr noundef nonnull align 8 dereferenceable(128) %2, ptr noundef nonnull align 8 dereferenceable(128) %19, i64 128, i1 false)
  %21 = call i32 @slurm_send_only_node_msg(ptr noundef nonnull %2) #15
  %.not15 = icmp eq i32 %21, 0
  br i1 %.not15, label %35, label %22

22:                                               ; preds = %20
  %23 = load i16, ptr %12, align 4
  %24 = zext i16 %23 to i32
  %25 = call ptr @rpc_num2string(i16 noundef zeroext %23) #15
  %26 = call i32 (ptr, ...) @error(ptr noundef nonnull @.str.29, i32 noundef %24, ptr noundef %25) #15
  br label %35

27:                                               ; preds = %1
  %28 = getelementptr inbounds nuw i8, ptr %0, i64 24
  %29 = load ptr, ptr %28, align 8
  %30 = call ptr @start_msg_tree(ptr noundef %29, ptr noundef nonnull %2, i32 noundef 0) #15
  %.not14 = icmp eq ptr %30, null
  br i1 %.not14, label %31, label %33

31:                                               ; preds = %27
  %32 = call i32 (ptr, ...) @error(ptr noundef nonnull @.str.30, ptr noundef nonnull @__func__._rpc_thread) #15
  br label %35

33:                                               ; preds = %27
  %34 = call i32 @list_for_each(ptr noundef nonnull %30, ptr noundef nonnull @_foreach_ret_data_info, ptr noundef null) #15
  call void @list_destroy(ptr noundef nonnull %30) #15
  br label %35

35:                                               ; preds = %31, %33, %20, %22
  call void @purge_agent_args(ptr noundef nonnull %0) #15
  call void @llvm.lifetime.end.p0(i64 424, ptr nonnull %2) #15
  ret ptr null
}